; ModuleID = '56/1574.c'
source_filename = "56/1574.c"
target datalayout = "e-m:e-p270:32:32-p271:32:32-p272:64:64-i64:64-f80:128-n8:16:32:64-S128"
target triple = "x86_64-pc-linux-gnu"

@.str = private unnamed_addr constant [3 x i8] c"%d\00", align 1
@.str.1 = private unnamed_addr constant [11 x i8] c"%d%d%d%d%d\00", align 1
@.str.2 = private unnamed_addr constant [9 x i8] c"%d%d%d%d\00", align 1
@.str.3 = private unnamed_addr constant [7 x i8] c"%d%d%d\00", align 1
@.str.4 = private unnamed_addr constant [5 x i8] c"%d%d\00", align 1

; Function Attrs: noinline nounwind uwtable
define dso_local i32 @main() #0 {
  %1 = alloca i32, align 4
  %2 = alloca i32, align 4
  %3 = alloca i32, align 4
  %4 = alloca i32, align 4
  %5 = alloca i32, align 4
  %6 = alloca i32, align 4
  %7 = alloca i32, align 4
  %8 = alloca i32, align 4
  store i32 0, i32* %1, align 4
  store i32 0, i32* %8, align 4
  %9 = call i32 (i8*, ...) @__isoc99_scanf(i8* getelementptr inbounds ([3 x i8], [3 x i8]* @.str, i64 0, i64 0), i32* %2)
  %10 = load i32, i32* %2, align 4
  %11 = icmp ne i32 %10, 0
  br i1 %11, label %12, label %19

12:                                               ; preds = %0
  %13 = load i32, i32* %8, align 4
  %14 = add nsw i32 %13, 1
  store i32 %14, i32* %8, align 4
  %15 = load i32, i32* %2, align 4
  %16 = srem i32 %15, 10
  store i32 %16, i32* %3, align 4
  %17 = load i32, i32* %2, align 4
  %18 = sdiv i32 %17, 10
  store i32 %18, i32* %2, align 4
  br label %19

19:                                               ; preds = %12, %0
  %20 = load i32, i32* %2, align 4
  %21 = icmp ne i32 %20, 0
  br i1 %21, label %22, label %29

22:                                               ; preds = %19
  %23 = load i32, i32* %8, align 4
  %24 = add nsw i32 %23, 1
  store i32 %24, i32* %8, align 4
  %25 = load i32, i32* %2, align 4
  %26 = srem i32 %25, 10
  store i32 %26, i32* %4, align 4
  %27 = load i32, i32* %2, align 4
  %28 = sdiv i32 %27, 10
  store i32 %28, i32* %2, align 4
  br label %29

29:                                               ; preds = %22, %19
  %30 = load i32, i32* %2, align 4
  %31 = icmp ne i32 %30, 0
  br i1 %31, label %32, label %39

32:                                               ; preds = %29
  %33 = load i32, i32* %8, align 4
  %34 = add nsw i32 %33, 1
  store i32 %34, i32* %8, align 4
  %35 = load i32, i32* %2, align 4
  %36 = srem i32 %35, 10
  store i32 %36, i32* %5, align 4
  %37 = load i32, i32* %2, align 4
  %38 = sdiv i32 %37, 10
  store i32 %38, i32* %2, align 4
  br label %39

39:                                               ; preds = %32, %29
  %40 = load i32, i32* %2, align 4
  %41 = icmp ne i32 %40, 0
  br i1 %41, label %42, label %49

42:                                               ; preds = %39
  %43 = load i32, i32* %8, align 4
  %44 = add nsw i32 %43, 1
  store i32 %44, i32* %8, align 4
  %45 = load i32, i32* %2, align 4
  %46 = srem i32 %45, 10
  store i32 %46, i32* %6, align 4
  %47 = load i32, i32* %2, align 4
  %48 = sdiv i32 %47, 10
  store i32 %48, i32* %2, align 4
  br label %49

49:                                               ; preds = %42, %39
  %50 = load i32, i32* %2, align 4
  %51 = icmp ne i32 %50, 0
  br i1 %51, label %52, label %59

52:                                               ; preds = %49
  %53 = load i32, i32* %8, align 4
  %54 = add nsw i32 %53, 1
  store i32 %54, i32* %8, align 4
  %55 = load i32, i32* %2, align 4
  %56 = srem i32 %55, 10
  store i32 %56, i32* %7, align 4
  %57 = load i32, i32* %2, align 4
  %58 = sdiv i32 %57, 10
  store i32 %58, i32* %2, align 4
  br label %59

59:                                               ; preds = %52, %49
  %60 = load i32, i32* %8, align 4
  switch i32 %60, label %86 [
    i32 5, label %61
    i32 4, label %68
    i32 3, label %74
    i32 2, label %79
    i32 1, label %83
  ]

61:                                               ; preds = %59
  %62 = load i32, i32* %3, align 4
  %63 = load i32, i32* %4, align 4
  %64 = load i32, i32* %5, align 4
  %65 = load i32, i32* %6, align 4
  %66 = load i32, i32* %7, align 4
  %67 = call i32 (i8*, ...) @printf(i8* getelementptr inbounds ([11 x i8], [11 x i8]* @.str.1, i64 0, i64 0), i32 %62, i32 %63, i32 %64, i32 %65, i32 %66)
  br label %86

68:                                               ; preds = %59
  %69 = load i32, i32* %3, align 4
  %70 = load i32, i32* %4, align 4
  %71 = load i32, i32* %5, align 4
  %72 = load i32, i32* %6, align 4
  %73 = call i32 (i8*, ...) @printf(i8* getelementptr inbounds ([9 x i8], [9 x i8]* @.str.2, i64 0, i64 0), i32 %69, i32 %70, i32 %71, i32 %72)
  br label %86

74:                                               ; preds = %59
  %75 = load i32, i32* %3, align 4
  %76 = load i32, i32* %4, align 4
  %77 = load i32, i32* %5, align 4
  %78 = call i32 (i8*, ...) @printf(i8* getelementptr inbounds ([7 x i8], [7 x i8]* @.str.3, i64 0, i64 0), i32 %75, i32 %76, i32 %77)
  br label %86

79:                                               ; preds = %59
  %80 = load i32, i32* %3, align 4
  %81 = load i32, i32* %4, align 4
  %82 = call i32 (i8*, ...) @printf(i8* getelementptr inbounds ([5 x i8], [5 x i8]* @.str.4, i64 0, i64 0), i32 %80, i32 %81)
  br label %86

83:                                               ; preds = %59
  %84 = load i32, i32* %3, align 4
  %85 = call i32 (i8*, ...) @printf(i8* getelementptr inbounds ([3 x i8], [3 x i8]* @.str, i64 0, i64 0), i32 %84)
  br label %86

86:                                               ; preds = %59, %83, %79, %74, %68, %61
  %87 = load i32, i32* %1, align 4
  ret i32 %87
}

declare dso_local i32 @__isoc99_scanf(i8*, ...) #1

declare dso_local i32 @printf(i8*, ...) #1


!llvm.module.flags = !{!0}
!llvm.ident = !{!1}

!0 = !{i32 1, !"wchar_size", i32 4}
!1 = !{!"clang version 10.0.0-4ubuntu1 "}
